target datalayout = "e-m:e-p270:32:32-p271:32:32-p272:64:64-i64:64-i128:128-f80:128-n8:16:32:64-S128"
target triple = "x86_64-pc-linux-gnu"

%struct._typeobject = type { %struct.PyVarObject, ptr, i64, i64, ptr, i64, ptr, ptr, ptr, ptr, ptr, ptr, ptr, ptr, ptr, ptr, ptr, ptr, ptr, i64, ptr, ptr, ptr, ptr, i64, ptr, ptr, ptr, ptr, ptr, ptr, ptr, ptr, ptr, i64, ptr, ptr, ptr, ptr, ptr, ptr, ptr, ptr, ptr, ptr, ptr, i32, ptr, ptr, i8, i16 }
%struct.PyVarObject = type { %struct._object, i64 }
%struct._object = type { %union.anon, ptr }
%union.anon = type { i64 }
%struct._longobject = type { %struct._object, %struct._PyLongValue }
%struct._PyLongValue = type { i64, [1 x i32] }
%struct.PyASCIIObject = type { %struct._object, i64, i64, %struct.anon.46 }
%struct.anon.46 = type { i16, i16 }

@PyUnicode_Type = external global %struct._typeobject, align 8
@_Py_TrueStruct = external global %struct._longobject, align 8
@_Py_FalseStruct = external global %struct._longobject, align 8

; Function Attrs: inlinehint nounwind uwtable
define internal ptr @_Py_TYPE(ptr noundef %0) #2 {
  %2 = alloca ptr, align 8
  store ptr %0, ptr %2, align 8, !tbaa !27
  %3 = load ptr, ptr %2, align 8, !tbaa !27
  %4 = getelementptr inbounds nuw %struct._object, ptr %3, i32 0, i32 1
  %5 = load ptr, ptr %4, align 8, !tbaa !65
  ret ptr %5
}

; Function Attrs: inlinehint nounwind uwtable
define internal i32 @Py_IS_TYPE(ptr noundef %0, ptr noundef %1) #2 {
  %3 = alloca ptr, align 8
  %4 = alloca ptr, align 8
  store ptr %0, ptr %3, align 8, !tbaa !27
  store ptr %1, ptr %4, align 8, !tbaa !56
  %5 = load ptr, ptr %3, align 8, !tbaa !27
  %6 = call ptr @_Py_TYPE(ptr noundef %5)
  %7 = load ptr, ptr %4, align 8, !tbaa !56
  %8 = icmp eq ptr %6, %7
  %9 = zext i1 %8 to i32
  ret i32 %9
}

; Function Attrs: nounwind uwtable
define hidden i32 @_PyDict_Contains_KnownHash(ptr noundef %0, ptr noundef %1, i64 noundef %2) #0 {
  %4 = alloca i32, align 4
  %5 = alloca ptr, align 8
  %6 = alloca ptr, align 8
  %7 = alloca i64, align 8
  %8 = alloca ptr, align 8
  %9 = alloca ptr, align 8
  %10 = alloca i64, align 8
  %11 = alloca i32, align 4
  store ptr %0, ptr %5, align 8, !tbaa !27
  store ptr %1, ptr %6, align 8, !tbaa !27
  store i64 %2, ptr %7, align 8, !tbaa !39
  call void @llvm.lifetime.start.p0(i64 8, ptr %8) #10
  %12 = load ptr, ptr %5, align 8, !tbaa !27
  store ptr %12, ptr %8, align 8, !tbaa !29
  call void @llvm.lifetime.start.p0(i64 8, ptr %9) #10
  call void @llvm.lifetime.start.p0(i64 8, ptr %10) #10
  %13 = load ptr, ptr %8, align 8, !tbaa !29
  %14 = load ptr, ptr %6, align 8, !tbaa !27
  %15 = load i64, ptr %7, align 8, !tbaa !39
  %16 = call i64 @_Py_dict_lookup(ptr noundef %13, ptr noundef %14, i64 noundef %15, ptr noundef %9)
  store i64 %16, ptr %10, align 8, !tbaa !39
  %17 = load i64, ptr %10, align 8, !tbaa !39
  %18 = icmp eq i64 %17, -3
  br i1 %18, label %19, label %20

19:                                               ; preds = %3
  store i32 -1, ptr %4, align 4
  store i32 1, ptr %11, align 4
  br label %28

20:                                               ; preds = %3
  %21 = load i64, ptr %10, align 8, !tbaa !39
  %22 = icmp ne i64 %21, -1
  br i1 %22, label %23, label %27

23:                                               ; preds = %20
  %24 = load ptr, ptr %9, align 8, !tbaa !27
  %25 = icmp ne ptr %24, null
  br i1 %25, label %26, label %27

26:                                               ; preds = %23
  store i32 1, ptr %4, align 4
  store i32 1, ptr %11, align 4
  br label %28

27:                                               ; preds = %23, %20
  store i32 0, ptr %4, align 4
  store i32 1, ptr %11, align 4
  br label %28

28:                                               ; preds = %27, %26, %19
  call void @llvm.lifetime.end.p0(i64 8, ptr %10) #10
  call void @llvm.lifetime.end.p0(i64 8, ptr %9) #10
  call void @llvm.lifetime.end.p0(i64 8, ptr %8) #10
  %29 = load i32, ptr %4, align 4
  ret i32 %29
}

; Function Attrs: inlinehint nounwind uwtable
define internal i64 @_PyObject_HashFast(ptr noundef %0) #2 {
  %2 = alloca i64, align 8
  %3 = alloca ptr, align 8
  %4 = alloca i64, align 8
  %5 = alloca i32, align 4
  store ptr %0, ptr %3, align 8, !tbaa !27
  %6 = load ptr, ptr %3, align 8, !tbaa !27
  %7 = call i32 @Py_IS_TYPE(ptr noundef %6, ptr noundef @PyUnicode_Type)
  %8 = icmp ne i32 %7, 0
  br i1 %8, label %9, label %21

9:                                                ; preds = %1
  call void @llvm.lifetime.start.p0(i64 8, ptr %4) #10
  %10 = load ptr, ptr %3, align 8, !tbaa !27
  %11 = getelementptr inbounds nuw %struct.PyASCIIObject, ptr %10, i32 0, i32 2
  %12 = load i64, ptr %11, align 8, !tbaa !67
  store i64 %12, ptr %4, align 8, !tbaa !39
  %13 = load i64, ptr %4, align 8, !tbaa !39
  %14 = icmp ne i64 %13, -1
  br i1 %14, label %15, label %17

15:                                               ; preds = %9
  %16 = load i64, ptr %4, align 8, !tbaa !39
  store i64 %16, ptr %2, align 8
  store i32 1, ptr %5, align 4
  br label %18

17:                                               ; preds = %9
  store i32 0, ptr %5, align 4
  br label %18

18:                                               ; preds = %17, %15
  call void @llvm.lifetime.end.p0(i64 8, ptr %4) #10
  %19 = load i32, ptr %5, align 4
  switch i32 %19, label %26 [
    i32 0, label %20
    i32 1, label %24
  ]

20:                                               ; preds = %18
  br label %21

21:                                               ; preds = %20, %1
  %22 = load ptr, ptr %3, align 8, !tbaa !27
  %23 = call i64 @PyObject_Hash(ptr noundef %22)
  store i64 %23, ptr %2, align 8
  br label %24

24:                                               ; preds = %21, %18
  %25 = load i64, ptr %2, align 8
  ret i64 %25

26:                                               ; preds = %18
  unreachable
}

; Function Attrs: nounwind uwtable
define dso_local i32 @PyDict_Contains(ptr noundef %0, ptr noundef %1) #0 {
  %3 = alloca i32, align 4
  %4 = alloca ptr, align 8
  %5 = alloca ptr, align 8
  %6 = alloca i64, align 8
  %7 = alloca i32, align 4
  store ptr %0, ptr %4, align 8, !tbaa !27
  store ptr %1, ptr %5, align 8, !tbaa !27
  call void @llvm.lifetime.start.p0(i64 8, ptr %6) #10
  %8 = load ptr, ptr %5, align 8, !tbaa !27
  %9 = call i64 @_PyObject_HashFast(ptr noundef %8)
  store i64 %9, ptr %6, align 8, !tbaa !39
  %10 = load i64, ptr %6, align 8, !tbaa !39
  %11 = icmp eq i64 %10, -1
  br i1 %11, label %12, label %13

12:                                               ; preds = %2
  store i32 -1, ptr %3, align 4
  store i32 1, ptr %7, align 4
  br label %18

13:                                               ; preds = %2
  %14 = load ptr, ptr %4, align 8, !tbaa !27
  %15 = load ptr, ptr %5, align 8, !tbaa !27
  %16 = load i64, ptr %6, align 8, !tbaa !39
  %17 = call i32 @_PyDict_Contains_KnownHash(ptr noundef %14, ptr noundef %15, i64 noundef %16)
  store i32 %17, ptr %3, align 4
  store i32 1, ptr %7, align 4
  br label %18

18:                                               ; preds = %13, %12
  call void @llvm.lifetime.end.p0(i64 8, ptr %6) #10
  %19 = load i32, ptr %3, align 4
  ret i32 %19
}

; Function Attrs: nounwind uwtable
define internal ptr @dict___contains__(ptr noundef %0, ptr noundef %1) #0 {
  %3 = alloca ptr, align 8
  %4 = alloca ptr, align 8
  %5 = alloca ptr, align 8
  %6 = alloca i32, align 4
  %7 = alloca i32, align 4
  store ptr %0, ptr %4, align 8, !tbaa !29
  store ptr %1, ptr %5, align 8, !tbaa !27
  call void @llvm.lifetime.start.p0(i64 4, ptr %6) #10
  %8 = load ptr, ptr %4, align 8, !tbaa !29
  %9 = load ptr, ptr %5, align 8, !tbaa !27
  %10 = call i32 @PyDict_Contains(ptr noundef %8, ptr noundef %9)
  store i32 %10, ptr %6, align 4, !tbaa !28
  %11 = load i32, ptr %6, align 4, !tbaa !28
  %12 = icmp slt i32 %11, 0
  br i1 %12, label %13, label %14

13:                                               ; preds = %2
  store ptr null, ptr %3, align 8
  store i32 1, ptr %7, align 4
  br label %19

14:                                               ; preds = %2
  %15 = load i32, ptr %6, align 4, !tbaa !28
  %16 = icmp ne i32 %15, 0
  br i1 %16, label %17, label %18

17:                                               ; preds = %14
  store ptr @_Py_TrueStruct, ptr %3, align 8
  store i32 1, ptr %7, align 4
  br label %19

18:                                               ; preds = %14
  store ptr @_Py_FalseStruct, ptr %3, align 8
  store i32 1, ptr %7, align 4
  br label %19

19:                                               ; preds = %18, %17, %13
  call void @llvm.lifetime.end.p0(i64 4, ptr %6) #10
  %20 = load ptr, ptr %3, align 8
  ret ptr %20
}