; Function Attrs: nounwind uwtable
define internal noundef ptr @dict___contains__(ptr noundef readonly captures(none) %0, ptr noundef %1) #0 {
  %3 = alloca ptr, align 8
  %4 = getelementptr i8, ptr %1, i64 8
  %.val.i.i = load ptr, ptr %4, align 8, !tbaa !25
  %.not.i.i = icmp eq ptr %.val.i.i, @PyUnicode_Type
  br i1 %.not.i.i, label %5, label %_PyObject_HashFast.exit.i

5:                                                ; preds = %2
  %6 = getelementptr inbounds nuw i8, ptr %1, i64 24
  %7 = load i64, ptr %6, align 8, !tbaa !55
  %.not7.not.i.i = icmp eq i64 %7, -1
  br i1 %.not7.not.i.i, label %_PyObject_HashFast.exit.i, label %_PyObject_HashFast.exit.thread.i

_PyObject_HashFast.exit.i:                        ; preds = %5, %2
  %8 = tail call i64 @PyObject_Hash(ptr noundef nonnull %1) #23
  %9 = icmp eq i64 %8, -1
  br i1 %9, label %.thread, label %_PyObject_HashFast.exit.thread.i

_PyObject_HashFast.exit.thread.i:                 ; preds = %_PyObject_HashFast.exit.i, %5
  %.1.i7.i = phi i64 [ %8, %_PyObject_HashFast.exit.i ], [ %7, %5 ]
  call void @llvm.lifetime.start.p0(i64 8, ptr nonnull %3) #23
  %10 = call i64 @_Py_dict_lookup(ptr noundef readonly %0, ptr noundef nonnull %1, i64 noundef %.1.i7.i, ptr noundef nonnull %3)
  %11 = icmp eq i64 %10, -3
  br i1 %11, label %PyDict_Contains.exit.thread9, label %PyDict_Contains.exit

PyDict_Contains.exit.thread9:                     ; preds = %_PyObject_HashFast.exit.thread.i
  call void @llvm.lifetime.end.p0(i64 8, ptr nonnull %3) #23
  br label %.thread

PyDict_Contains.exit:                             ; preds = %_PyObject_HashFast.exit.thread.i
  %12 = icmp eq i64 %10, -1
  %13 = load ptr, ptr %3, align 8
  %14 = icmp eq ptr %13, null
  %or.cond.i.i.not = select i1 %12, i1 true, i1 %14
  call void @llvm.lifetime.end.p0(i64 8, ptr nonnull %3) #23
  %cond.fr5 = freeze i1 %or.cond.i.i.not
  %spec.select = select i1 %cond.fr5, ptr @_Py_FalseStruct, ptr @_Py_TrueStruct
  br label %.thread

.thread:                                          ; preds = %PyDict_Contains.exit, %PyDict_Contains.exit.thread9, %_PyObject_HashFast.exit.i
  %15 = phi ptr [ %spec.select, %PyDict_Contains.exit ], [ null, %_PyObject_HashFast.exit.i ], [ null, %PyDict_Contains.exit.thread9 ]
  ret ptr %15
}